; Function Attrs: nounwind uwtable
define void @Gia_ObjComputeTruth6CisSupport_rec(ptr noundef readonly captures(none) %0, i32 noundef %1, ptr noundef captures(none) %2) local_unnamed_addr #2 {
  %4 = getelementptr i8, ptr %0, i64 32
  %5 = getelementptr i8, ptr %0, i64 176
  %6 = getelementptr i8, ptr %0, i64 616
  %7 = sext i32 %1 to i64
  %.val1930 = load i32, ptr %5, align 8, !tbaa !42
  %.val2031 = load ptr, ptr %6, align 8, !tbaa !43
  %8 = getelementptr inbounds i32, ptr %.val2031, i64 %7
  %9 = load i32, ptr %8, align 4, !tbaa !31
  %.not32 = icmp eq i32 %9, %.val1930
  br i1 %.not32, label %.loopexit, label %.lr.ph.preheader

.lr.ph.preheader:                                 ; preds = %3
  %.val29 = load ptr, ptr %4, align 8, !tbaa !3
  %10 = getelementptr inbounds %struct.Gia_Obj_t_, ptr %.val29, i64 %7
  br label %.lr.ph

.lr.ph:                                           ; preds = %.lr.ph.preheader, %tailrecurse
  %11 = phi ptr [ %71, %tailrecurse ], [ %8, %.lr.ph.preheader ]
  %.val1934 = phi i32 [ %.val19, %tailrecurse ], [ %.val1930, %.lr.ph.preheader ]
  %12 = phi ptr [ %70, %tailrecurse ], [ %10, %.lr.ph.preheader ]
  %.tr2533 = phi i32 [ %68, %tailrecurse ], [ %1, %.lr.ph.preheader ]
  store i32 %.val1934, ptr %11, align 4, !tbaa !31
  %.val17 = load i64, ptr %12, align 4
  %13 = and i64 %.val17, 2684354559
  %narrow.i.not = icmp eq i64 %13, 2684354559
  br i1 %narrow.i.not, label %14, label %tailrecurse

14:                                               ; preds = %.lr.ph
  %15 = getelementptr inbounds nuw i8, ptr %2, i64 4
  %16 = load i32, ptr %15, align 4, !tbaa !36
  %17 = load i32, ptr %2, align 8, !tbaa !37
  %18 = icmp eq i32 %16, %17
  br i1 %18, label %19, label %.Vec_IntGrow.exit23.i_crit_edge

.Vec_IntGrow.exit23.i_crit_edge:                  ; preds = %14
  %.phi.trans.insert = getelementptr inbounds nuw i8, ptr %2, i64 8
  %.pre = load ptr, ptr %.phi.trans.insert, align 8, !tbaa !30
  br label %Vec_IntGrow.exit23.i

19:                                               ; preds = %14
  %20 = icmp slt i32 %16, 16
  br i1 %20, label %21, label %29

21:                                               ; preds = %19
  %22 = getelementptr inbounds nuw i8, ptr %2, i64 8
  %23 = load ptr, ptr %22, align 8, !tbaa !30
  %.not9.i.i = icmp eq ptr %23, null
  br i1 %.not9.i.i, label %26, label %24

24:                                               ; preds = %21
  %25 = tail call dereferenceable_or_null(64) ptr @realloc(ptr noundef nonnull %23, i64 noundef 64) #25
  br label %Vec_IntGrow.exit.i

26:                                               ; preds = %21
  %27 = tail call noalias dereferenceable_or_null(64) ptr @malloc(i64 noundef 64) #24
  br label %Vec_IntGrow.exit.i

Vec_IntGrow.exit.i:                               ; preds = %26, %24
  %28 = phi ptr [ %25, %24 ], [ %27, %26 ]
  store ptr %28, ptr %22, align 8, !tbaa !30
  br label %Vec_IntGrow.exit23thread-pre-split.i

29:                                               ; preds = %19
  %30 = shl nuw nsw i32 %16, 1
  %31 = getelementptr inbounds nuw i8, ptr %2, i64 8
  %32 = load ptr, ptr %31, align 8, !tbaa !30
  %.not9.i22.i = icmp eq ptr %32, null
  %33 = zext nneg i32 %30 to i64
  %34 = shl nuw nsw i64 %33, 2
  br i1 %.not9.i22.i, label %37, label %35

35:                                               ; preds = %29
  %36 = tail call ptr @realloc(ptr noundef nonnull %32, i64 noundef %34) #25
  br label %39

37:                                               ; preds = %29
  %38 = tail call noalias ptr @malloc(i64 noundef %34) #24
  br label %39

39:                                               ; preds = %37, %35
  %40 = phi ptr [ %36, %35 ], [ %38, %37 ]
  store ptr %40, ptr %31, align 8, !tbaa !30
  br label %Vec_IntGrow.exit23thread-pre-split.i

Vec_IntGrow.exit23thread-pre-split.i:             ; preds = %39, %Vec_IntGrow.exit.i
  %41 = phi ptr [ %28, %Vec_IntGrow.exit.i ], [ %40, %39 ]
  %.sink.i = phi i32 [ 16, %Vec_IntGrow.exit.i ], [ %30, %39 ]
  store i32 %.sink.i, ptr %2, align 8, !tbaa !37
  %.pr.i = load i32, ptr %15, align 4, !tbaa !36
  br label %Vec_IntGrow.exit23.i

Vec_IntGrow.exit23.i:                             ; preds = %.Vec_IntGrow.exit23.i_crit_edge, %Vec_IntGrow.exit23thread-pre-split.i
  %42 = phi ptr [ %41, %Vec_IntGrow.exit23thread-pre-split.i ], [ %.pre, %.Vec_IntGrow.exit23.i_crit_edge ]
  %43 = phi i32 [ %.pr.i, %Vec_IntGrow.exit23thread-pre-split.i ], [ %16, %.Vec_IntGrow.exit23.i_crit_edge ]
  %44 = add nsw i32 %43, 1
  store i32 %44, ptr %15, align 4, !tbaa !36
  %45 = icmp sgt i32 %43, 0
  br i1 %45, label %.lr.ph.i, label %Vec_IntPushOrder.exit

.lr.ph.i:                                         ; preds = %Vec_IntGrow.exit23.i
  %46 = zext nneg i32 %43 to i64
  br label %47

47:                                               ; preds = %51, %.lr.ph.i
  %indvars.iv.i = phi i64 [ %46, %.lr.ph.i ], [ %indvars.iv.next.i, %51 ]
  %indvars.iv.next.i = add nsw i64 %indvars.iv.i, -1
  %48 = getelementptr inbounds nuw i32, ptr %42, i64 %indvars.iv.next.i
  %49 = load i32, ptr %48, align 4, !tbaa !31
  %50 = icmp sgt i32 %49, %.tr2533
  br i1 %50, label %51, label %._crit_edge.loopexit.split.loop.exit.i

51:                                               ; preds = %47
  %52 = getelementptr inbounds nuw i32, ptr %42, i64 %indvars.iv.i
  store i32 %49, ptr %52, align 4, !tbaa !31
  %53 = icmp samesign ugt i64 %indvars.iv.i, 1
  br i1 %53, label %47, label %Vec_IntPushOrder.exit, !llvm.loop !51

._crit_edge.loopexit.split.loop.exit.i:           ; preds = %47
  %54 = trunc nuw nsw i64 %indvars.iv.i to i32
  br label %Vec_IntPushOrder.exit

Vec_IntPushOrder.exit:                            ; preds = %51, %Vec_IntGrow.exit23.i, %._crit_edge.loopexit.split.loop.exit.i
  %.0.in.lcssa.i = phi i32 [ %43, %Vec_IntGrow.exit23.i ], [ %54, %._crit_edge.loopexit.split.loop.exit.i ], [ 0, %51 ]
  %55 = sext i32 %.0.in.lcssa.i to i64
  %56 = getelementptr inbounds i32, ptr %42, i64 %55
  store i32 %.tr2533, ptr %56, align 4, !tbaa !31
  br label %.loopexit

tailrecurse:                                      ; preds = %.lr.ph
  %57 = ptrtoint ptr %12 to i64
  %58 = trunc i64 %.val17 to i32
  %59 = and i32 %58, 536870911
  %60 = sub nsw i32 %.tr2533, %59
  tail call void @Gia_ObjComputeTruth6CisSupport_rec(ptr noundef nonnull %0, i32 noundef %60, ptr noundef %2)
  %.val23 = load ptr, ptr %4, align 8, !tbaa !3
  %61 = ptrtoint ptr %.val23 to i64
  %62 = sub i64 %57, %61
  %63 = sdiv exact i64 %62, 12
  %64 = trunc i64 %63 to i32
  %.val.i24 = load i64, ptr %12, align 4
  %65 = lshr i64 %.val.i24, 32
  %66 = trunc nuw i64 %65 to i32
  %67 = and i32 %66, 536870911
  %68 = sub nsw i32 %64, %67
  %69 = sext i32 %68 to i64
  %70 = getelementptr inbounds %struct.Gia_Obj_t_, ptr %.val23, i64 %69
  %.val19 = load i32, ptr %5, align 8, !tbaa !42
  %.val20 = load ptr, ptr %6, align 8, !tbaa !43
  %71 = getelementptr inbounds i32, ptr %.val20, i64 %69
  %72 = load i32, ptr %71, align 4, !tbaa !31
  %.not = icmp eq i32 %72, %.val19
  br i1 %.not, label %.loopexit, label %.lr.ph

.loopexit:                                        ; preds = %tailrecurse, %3, %Vec_IntPushOrder.exit
  ret void
}